; ModuleID = 'source-C-CXX/15/1213.cpp'
source_filename = "source-C-CXX/15/1213.cpp"
target datalayout = "e-m:e-p270:32:32-p271:32:32-p272:64:64-i64:64-f80:128-n8:16:32:64-S128"
target triple = "x86_64-pc-linux-gnu"

%"class.std::ios_base::Init" = type { i8 }
%"class.std::basic_istream" = type { i32 (...)**, i64, %"class.std::basic_ios" }
%"class.std::basic_ios" = type { %"class.std::ios_base", %"class.std::basic_ostream"*, i8, i8, %"class.std::basic_streambuf"*, %"class.std::ctype"*, %"class.std::num_put"*, %"class.std::num_get"* }
%"class.std::ios_base" = type { i32 (...)**, i64, i64, i32, i32, i32, %"struct.std::ios_base::_Callback_list"*, %"struct.std::ios_base::_Words", [8 x %"struct.std::ios_base::_Words"], i32, %"struct.std::ios_base::_Words"*, %"class.std::locale" }
%"struct.std::ios_base::_Callback_list" = type { %"struct.std::ios_base::_Callback_list"*, void (i32, %"class.std::ios_base"*, i32)*, i32, i32 }
%"struct.std::ios_base::_Words" = type { i8*, i64 }
%"class.std::locale" = type { %"class.std::locale::_Impl"* }
%"class.std::locale::_Impl" = type { i32, %"class.std::locale::facet"**, i64, %"class.std::locale::facet"**, i8** }
%"class.std::locale::facet" = type <{ i32 (...)**, i32, [4 x i8] }>
%"class.std::basic_ostream" = type { i32 (...)**, %"class.std::basic_ios" }
%"class.std::basic_streambuf" = type { i32 (...)**, i8*, i8*, i8*, i8*, i8*, i8*, %"class.std::locale" }
%"class.std::ctype" = type <{ %"class.std::locale::facet.base", [4 x i8], %struct.__locale_struct*, i8, [7 x i8], i32*, i32*, i16*, i8, [256 x i8], [256 x i8], i8, [6 x i8] }>
%"class.std::locale::facet.base" = type <{ i32 (...)**, i32 }>
%struct.__locale_struct = type { [13 x %struct.__locale_data*], i16*, i32*, i32*, [13 x i8*] }
%struct.__locale_data = type opaque
%"class.std::num_put" = type { %"class.std::locale::facet.base", [4 x i8] }
%"class.std::num_get" = type { %"class.std::locale::facet.base", [4 x i8] }

@_ZStL8__ioinit = internal global %"class.std::ios_base::Init" zeroinitializer, align 1
@__dso_handle = external hidden global i8
@_ZSt3cin = external global %"class.std::basic_istream", align 8
@_ZSt4cout = external global %"class.std::basic_ostream", align 8
@llvm.global_ctors = appending global [1 x { i32, void ()*, i8* }] [{ i32, void ()*, i8* } { i32 65535, void ()* @_GLOBAL__sub_I_1213.cpp, i8* null }]

declare void @_ZNSt8ios_base4InitC1Ev(%"class.std::ios_base::Init"* nonnull align 1 dereferenceable(1)) unnamed_addr #0

; Function Attrs: nounwind
declare void @_ZNSt8ios_base4InitD1Ev(%"class.std::ios_base::Init"* nonnull align 1 dereferenceable(1)) unnamed_addr #1

; Function Attrs: nofree nounwind
declare i32 @__cxa_atexit(void (i8*)*, i8*, i8*) local_unnamed_addr #2

; Function Attrs: mustprogress norecurse sspstrong uwtable
define dso_local i32 @main() local_unnamed_addr #3 {
  %1 = alloca i32, align 4
  %2 = alloca [6 x i32], align 16
  %3 = bitcast i32* %1 to i8*
  call void @llvm.lifetime.start.p0i8(i64 4, i8* nonnull %3) #6
  %4 = bitcast [6 x i32]* %2 to i8*
  call void @llvm.lifetime.start.p0i8(i64 24, i8* nonnull %4) #6
  %5 = call nonnull align 8 dereferenceable(16) %"class.std::basic_istream"* @_ZNSirsERi(%"class.std::basic_istream"* nonnull align 8 dereferenceable(16) @_ZSt3cin, i32* nonnull align 4 dereferenceable(4) %1)
  %6 = load i32, i32* %1, align 4, !tbaa !5
  %7 = icmp eq i32 %6, 0
  br i1 %7, label %8, label %11

8:                                                ; preds = %0
  %9 = call nonnull align 8 dereferenceable(8) %"class.std::basic_ostream"* @_ZNSolsEi(%"class.std::basic_ostream"* nonnull align 8 dereferenceable(8) @_ZSt4cout, i32 0)
  %10 = load i32, i32* %1, align 4, !tbaa !5
  br label %11

11:                                               ; preds = %8, %0
  %12 = phi i32 [ %10, %8 ], [ %6, %0 ]
  %13 = sitofp i32 %12 to double
  %14 = fdiv double %13, 1.000000e+05
  %15 = fptosi double %14 to i32
  %16 = getelementptr inbounds [6 x i32], [6 x i32]* %2, i64 0, i64 0
  store i32 %15, i32* %16, align 16, !tbaa !5
  %17 = sitofp i32 %15 to double
  %18 = fmul double %17, 1.000000e+05
  %19 = fsub double %13, %18
  %20 = fptosi double %19 to i32
  %21 = sitofp i32 %20 to double
  %22 = fdiv double %21, 1.000000e+04
  %23 = fptosi double %22 to i32
  %24 = getelementptr inbounds [6 x i32], [6 x i32]* %2, i64 0, i64 1
  store i32 %23, i32* %24, align 4, !tbaa !5
  %25 = sitofp i32 %23 to double
  %26 = fmul double %25, 1.000000e+04
  %27 = fsub double %21, %26
  %28 = fptosi double %27 to i32
  %29 = sitofp i32 %28 to double
  %30 = fdiv double %29, 1.000000e+03
  %31 = fptosi double %30 to i32
  %32 = getelementptr inbounds [6 x i32], [6 x i32]* %2, i64 0, i64 2
  store i32 %31, i32* %32, align 8, !tbaa !5
  %33 = sitofp i32 %31 to double
  %34 = fmul double %33, 1.000000e+03
  %35 = fsub double %29, %34
  %36 = fptosi double %35 to i32
  %37 = sitofp i32 %36 to double
  %38 = fdiv double %37, 1.000000e+02
  %39 = fptosi double %38 to i32
  %40 = getelementptr inbounds [6 x i32], [6 x i32]* %2, i64 0, i64 3
  store i32 %39, i32* %40, align 4, !tbaa !5
  %41 = sitofp i32 %39 to double
  %42 = fmul double %41, 1.000000e+02
  %43 = fsub double %37, %42
  %44 = fptosi double %43 to i32
  %45 = sitofp i32 %44 to double
  %46 = fdiv double %45, 1.000000e+01
  %47 = fptosi double %46 to i32
  %48 = getelementptr inbounds [6 x i32], [6 x i32]* %2, i64 0, i64 4
  store i32 %47, i32* %48, align 16, !tbaa !5
  %49 = sitofp i32 %47 to double
  %50 = fmul double %49, 1.000000e+01
  %51 = fsub double %45, %50
  %52 = fptosi double %51 to i32
  %53 = getelementptr inbounds [6 x i32], [6 x i32]* %2, i64 0, i64 5
  store i32 %52, i32* %53, align 4, !tbaa !5
  store i32 0, i32* %1, align 4, !tbaa !5
  %54 = icmp eq i32 %15, 0
  br i1 %54, label %55, label %57

55:                                               ; preds = %11
  %56 = icmp eq i32 %23, 0
  br i1 %56, label %69, label %57

57:                                               ; preds = %75, %73, %71, %69, %55, %11
  %58 = phi i1 [ false, %75 ], [ true, %73 ], [ true, %71 ], [ true, %69 ], [ true, %55 ], [ true, %11 ]
  %59 = phi i64 [ 5, %75 ], [ 4, %73 ], [ 3, %71 ], [ 2, %69 ], [ 1, %55 ], [ 0, %11 ]
  %60 = call nonnull align 8 dereferenceable(8) %"class.std::basic_ostream"* @_ZNSolsEi(%"class.std::basic_ostream"* nonnull align 8 dereferenceable(8) @_ZSt4cout, i32 %52)
  br i1 %58, label %61, label %68, !llvm.loop !9

61:                                               ; preds = %57, %61
  %62 = phi i64 [ %66, %61 ], [ 4, %57 ]
  %63 = getelementptr inbounds [6 x i32], [6 x i32]* %2, i64 0, i64 %62
  %64 = load i32, i32* %63, align 4, !tbaa !5
  %65 = call nonnull align 8 dereferenceable(8) %"class.std::basic_ostream"* @_ZNSolsEi(%"class.std::basic_ostream"* nonnull align 8 dereferenceable(8) @_ZSt4cout, i32 %64)
  %66 = add nsw i64 %62, -1
  %67 = icmp ugt i64 %62, %59
  br i1 %67, label %61, label %68, !llvm.loop !9

68:                                               ; preds = %61, %57, %75
  call void @llvm.lifetime.end.p0i8(i64 24, i8* nonnull %4) #6
  call void @llvm.lifetime.end.p0i8(i64 4, i8* nonnull %3) #6
  ret i32 0

69:                                               ; preds = %55
  %70 = icmp eq i32 %31, 0
  br i1 %70, label %71, label %57

71:                                               ; preds = %69
  %72 = icmp eq i32 %39, 0
  br i1 %72, label %73, label %57

73:                                               ; preds = %71
  %74 = icmp eq i32 %47, 0
  br i1 %74, label %75, label %57

75:                                               ; preds = %73
  %76 = icmp eq i32 %52, 0
  br i1 %76, label %68, label %57
}

; Function Attrs: argmemonly mustprogress nofree nosync nounwind willreturn
declare void @llvm.lifetime.start.p0i8(i64 immarg, i8* nocapture) #4

declare nonnull align 8 dereferenceable(16) %"class.std::basic_istream"* @_ZNSirsERi(%"class.std::basic_istream"* nonnull align 8 dereferenceable(16), i32* nonnull align 4 dereferenceable(4)) local_unnamed_addr #0

declare nonnull align 8 dereferenceable(8) %"class.std::basic_ostream"* @_ZNSolsEi(%"class.std::basic_ostream"* nonnull align 8 dereferenceable(8), i32) local_unnamed_addr #0

; Function Attrs: argmemonly mustprogress nofree nosync nounwind willreturn
declare void @llvm.lifetime.end.p0i8(i64 immarg, i8* nocapture) #4

; Function Attrs: sspstrong uwtable
define internal void @_GLOBAL__sub_I_1213.cpp() #5 section ".text.startup" {
  tail call void @_ZNSt8ios_base4InitC1Ev(%"class.std::ios_base::Init"* nonnull align 1 dereferenceable(1) @_ZStL8__ioinit)
  %1 = tail call i32 @__cxa_atexit(void (i8*)* bitcast (void (%"class.std::ios_base::Init"*)* @_ZNSt8ios_base4InitD1Ev to void (i8*)*), i8* getelementptr inbounds (%"class.std::ios_base::Init", %"class.std::ios_base::Init"* @_ZStL8__ioinit, i64 0, i32 0), i8* nonnull @__dso_handle) #6
  ret void
}


!llvm.module.flags = !{!0, !1, !2, !3}
!llvm.ident = !{!4}

!0 = !{i32 1, !"wchar_size", i32 4}
!1 = !{i32 7, !"PIC Level", i32 2}
!2 = !{i32 7, !"PIE Level", i32 2}
!3 = !{i32 7, !"uwtable", i32 1}
!4 = !{!"clang version 13.0.0"}
!5 = !{!6, !6, i64 0}
!6 = !{!"int", !7, i64 0}
!7 = !{!"omnipotent char", !8, i64 0}
!8 = !{!"Simple C++ TBAA"}
!9 = distinct !{!9, !10}
!10 = !{!"llvm.loop.mustprogress"}
